; Function Attrs: null_pointer_is_valid sspstrong uwtable
define internal fastcc noundef i32 @dissect_kafka_add_offsets_to_txn_response(ptr noundef %0, ptr noundef readonly captures(none) %1, ptr noundef %2, i32 noundef %3) unnamed_addr #0 {
  %5 = load i32, ptr @hf_kafka_throttle_time, align 4
  %6 = tail call ptr @proto_tree_add_item(ptr noundef %2, i32 noundef %5, ptr noundef %0, i32 noundef %3, i32 noundef 4, i32 noundef 0)
  %7 = add i32 %3, 4
  %8 = tail call zeroext i16 @tvb_get_ntohs(ptr noundef %0, i32 noundef %7)
  %9 = load i32, ptr @hf_kafka_error, align 4
  %10 = tail call ptr @proto_tree_add_item(ptr noundef %2, i32 noundef %9, ptr noundef %0, i32 noundef %7, i32 noundef 2, i32 noundef 0)
  %.not.i.i = icmp eq i16 %8, 0
  br i1 %.not.i.i, label %dissect_kafka_error.exit, label %11

11:                                               ; preds = %4
  %12 = getelementptr inbounds nuw i8, ptr %1, i64 8
  %13 = load ptr, ptr %12, align 8
  %14 = sext i16 %8 to i32
  %15 = tail call ptr @val_to_str(i32 noundef %14, ptr noundef nonnull @kafka_errors, ptr noundef nonnull @.str.628)
  tail call void (ptr, i32, ptr, ...) @col_append_fstr(ptr noundef %13, i32 noundef 25, ptr noundef nonnull @.str.742, ptr noundef %15)
  br label %dissect_kafka_error.exit

dissect_kafka_error.exit:                         ; preds = %4, %11
  %16 = add i32 %3, 6
  ret i32 %16
}